; Function Attrs: mustprogress nofree norecurse nosync nounwind willreturn memory(readwrite, inaccessiblemem: none) uwtable
define void @ff_inlink_request_frame(ptr noundef captures(none) initializes((388, 392)) %0) local_unnamed_addr #11 {
  %2 = getelementptr inbounds nuw i8, ptr %0, i64 388
  store i32 1, ptr %2, align 4, !tbaa !65
  %3 = load ptr, ptr %0, align 8, !tbaa !38
  %4 = getelementptr inbounds nuw i8, ptr %3, i64 164
  %5 = load i32, ptr %4, align 4, !tbaa !62
  %..i = tail call i32 @llvm.umax.i32(i32 %5, i32 100)
  store i32 %..i, ptr %4, align 4, !tbaa !62
  ret void
}